; Function Attrs: mustprogress uwtable
define hidden void @_ZNK7datalog15bitvector_table3endEv(ptr noalias nocapture writeonly sret(%"class.datalog::table_base::iterator") align 8 %agg.result, ptr noundef nonnull align 8 dereferenceable(80) %this) unnamed_addr #3 align 2 personality ptr @__gxx_personality_v0 {
entry:
  %call = tail call noalias noundef ptr @_ZN6memory8allocateEm(i64 noundef 64)
  %m_ref_cnt.i.i = getelementptr inbounds i8, ptr %call, i64 8
  store ptr getelementptr inbounds ({ [8 x ptr] }, ptr @_ZTVN7datalog15bitvector_table11bv_iteratorE, i64 0, i32 0, i64 2), ptr %call, align 8
  %m_bv.i = getelementptr inbounds i8, ptr %call, i64 16
  store ptr %this, ptr %m_bv.i, align 8
  %m_offset.i = getelementptr inbounds i8, ptr %call, i64 24
  %m_bv3.i = getelementptr inbounds i8, ptr %this, i64 40
  %0 = load i32, ptr %m_bv3.i, align 8
  store i32 %0, ptr %m_offset.i, align 8
  %m_row_obj.i = getelementptr inbounds i8, ptr %call, i64 32
  %m_parent_table.i.i.i.i = getelementptr inbounds i8, ptr %call, i64 40
  store ptr %this, ptr %m_parent_table.i.i.i.i, align 8
  %m_current.i.i.i = getelementptr inbounds i8, ptr %call, i64 48
  store ptr null, ptr %m_current.i.i.i, align 8
  store ptr getelementptr inbounds ({ [9 x ptr] }, ptr @_ZTVN7datalog15bitvector_table11bv_iterator7our_rowE, i64 0, i32 0, i64 2), ptr %m_row_obj.i, align 8
  %m_parent.i.i = getelementptr inbounds i8, ptr %call, i64 56
  store ptr %call, ptr %m_parent.i.i, align 8
  tail call void @llvm.experimental.noalias.scope.decl(metadata !23)
  store ptr %call, ptr %agg.result, align 8, !alias.scope !23
  store i32 1, ptr %m_ref_cnt.i.i, align 8, !noalias !23
  ret void
}